(dp0
ccopy_reg
_reconstructor
p1
(cscooter.scooter
Command
p2
c__builtin__
tuple
p3
(cscooter.scooter
run
p4
((S'/usr/lib/llvm-3.0/bin/llvm-link'
p5
S'.objcache/894b634bc189deaac156c4a0628a1969369d8db9.ll'
p6
S'.objcache/7481b5736eaa8784922a5fe95c674376cdfcc2ff.ll'
p7
S'-o'
p8
S'.objcache/586cf60226bdbea3e81990f05e9c32981d8590d9.bc'
p9
tp10
tp11
((S'echo'
p12
I01
tp13
(S'env'
p14
g1
(cscooter.scooter
hashable_dict
p15
c__builtin__
dict
p16
(dp17
tp18
Rp19
tp20
(S'verbose'
p21
I00
tp22
tp23
tp24
tp25
Rp26
(iscooter.scooter
CacheEntry
p27
(dp28
S'timestamp'
p29
F1344214373.402276
sS'command'
p30
g26
sS'result'
p31
NsS'file_sha1s'
p32
(lp33
(S'/home/owen/src/little-stuff/pymakelib/.objcache/586cf60226bdbea3e81990f05e9c32981d8590d9.bc'
p34
S'3f708804c4146764dff6e8a712d0db782c61b2e9'
p35
tp36
a(S'/home/owen/src/little-stuff/pymakelib/.objcache/7481b5736eaa8784922a5fe95c674376cdfcc2ff.ll'
p37
S'39a5c68ea9225ba2ad06ce00cfae7a7ef4a2b3fe'
p38
tp39
a(S'/home/owen/src/little-stuff/pymakelib/.objcache/894b634bc189deaac156c4a0628a1969369d8db9.ll'
p40
S'ab0af0cb8c90640547eb5858b1538ff8ed85e49a'
p41
tp42
a(S'/home/owen/src/little-stuff/pymakelib/.objcache/586cf60226bdbea3e81990f05e9c32981d8590d9.bc'
p43
S'3f708804c4146764dff6e8a712d0db782c61b2e9'
p44
tp45
asbsg1
(g2
g3
(g4
((S'/usr/lib/llvm-3.0/bin/llc'
p46
S'-march=c'
p47
S'-o'
p48
S'build/all.c'
p49
S'.objcache/a4da8a9525436c9226ddd5f2973077ec1c9cd2ef.bc'
p50
tp51
tp52
((g12
I01
tp53
(g14
g1
(g15
g16
(dp54
tp55
Rp56
tp57
(g21
I00
tp58
tp59
tp60
tp61
Rp62
(iscooter.scooter
CacheEntry
p63
(dp64
g29
F1344214373.535202
sg30
g62
sg31
Nsg32
(lp65
(S'/home/owen/src/little-stuff/pymakelib/build/all.c'
p66
S'a9797b0ad72ba8713854146d4105486d36f8b507'
p67
tp68
a(S'/home/owen/src/little-stuff/pymakelib/.objcache/a4da8a9525436c9226ddd5f2973077ec1c9cd2ef.bc'
p69
S'd6e3a3eeb44215056bcf47dbfd4f116a26a1f6f6'
p70
tp71
a(S'/home/owen/src/little-stuff/pymakelib/build/all.c'
p72
S'a9797b0ad72ba8713854146d4105486d36f8b507'
p73
tp74
asbsg1
(g2
g3
(g4
((S'clang'
p75
S'-S'
p76
S'src/main.cpp'
p77
S'-emit-llvm'
p78
S'-o'
p79
g6
tp80
tp81
((g12
I01
tp82
(g14
g1
(g15
g16
(dp83
tp84
Rp85
tp86
(g21
I00
tp87
tp88
tp89
tp90
Rp91
(iscooter.scooter
CacheEntry
p92
(dp93
g29
F1344214373.293731
sg30
g91
sg31
Nsg32
(lp94
(S'/home/owen/src/little-stuff/pymakelib/.objcache/894b634bc189deaac156c4a0628a1969369d8db9.ll'
p95
S'ab0af0cb8c90640547eb5858b1538ff8ed85e49a'
p96
tp97
a(S'/home/owen/src/little-stuff/pymakelib/src/main.cpp'
p98
S'464ee97d6aef1effe8f95dde8b84cc428cf76ced'
p99
tp100
a(S'/home/owen/src/little-stuff/pymakelib/.objcache/894b634bc189deaac156c4a0628a1969369d8db9.ll'
p101
S'ab0af0cb8c90640547eb5858b1538ff8ed85e49a'
p102
tp103
asbsg1
(g2
g3
(g4
((g75
g76
S'src/foo.cpp'
p104
g78
g79
g7
tp105
tp106
((g12
I01
tp107
(g14
g1
(g15
g16
(dp108
tp109
Rp110
tp111
(g21
I00
tp112
tp113
tp114
tp115
Rp116
(iscooter.scooter
CacheEntry
p117
(dp118
g29
F1344214373.33319
sg30
g116
sg31
Nsg32
(lp119
(S'/home/owen/src/little-stuff/pymakelib/.objcache/7481b5736eaa8784922a5fe95c674376cdfcc2ff.ll'
p120
S'39a5c68ea9225ba2ad06ce00cfae7a7ef4a2b3fe'
p121
tp122
a(S'/home/owen/src/little-stuff/pymakelib/src/foo.cpp'
p123
S'71853c6197a6a7f222db0f1978c7cb232b87c5ee'
p124
tp125
a(S'/home/owen/src/little-stuff/pymakelib/.objcache/7481b5736eaa8784922a5fe95c674376cdfcc2ff.ll'
p126
S'39a5c68ea9225ba2ad06ce00cfae7a7ef4a2b3fe'
p127
tp128
asbsg1
(g2
g3
(g4
((S'/usr/lib/llvm-3.0/bin/opt'
p129
S'-O3'
p130
g9
S'-o'
p131
g50
tp132
tp133
((g12
I01
tp134
(g14
g1
(g15
g16
(dp135
tp136
Rp137
tp138
(g21
I00
tp139
tp140
tp141
tp142
Rp143
(iscooter.scooter
CacheEntry
p144
(dp145
g29
F1344214373.44272
sg30
g143
sg31
Nsg32
(lp146
(S'/home/owen/src/little-stuff/pymakelib/.objcache/a4da8a9525436c9226ddd5f2973077ec1c9cd2ef.bc'
p147
S'd6e3a3eeb44215056bcf47dbfd4f116a26a1f6f6'
p148
tp149
a(S'/home/owen/src/little-stuff/pymakelib/.objcache/586cf60226bdbea3e81990f05e9c32981d8590d9.bc'
p150
S'3f708804c4146764dff6e8a712d0db782c61b2e9'
p151
tp152
a(S'/home/owen/src/little-stuff/pymakelib/.objcache/a4da8a9525436c9226ddd5f2973077ec1c9cd2ef.bc'
p153
S'd6e3a3eeb44215056bcf47dbfd4f116a26a1f6f6'
p154
tp155
asbs.